(lp0
(lp1
F-8.30630111694336
aF-2.4595508575439453
aF0.7687035286700911
aa(lp2
F-5.924503326416016
aF-5.666454315185547
aF0.8135942137139444
aa(lp3
F-15.095498085021973
aF2.878493070602417
aF-0.6985388379981162
aa(lp4
F4.196507453918457
aF3.0796146392822266
aF-0.7491433284288924
aa(lp5
F8.271011352539062
aF-0.41538751125335693
aF-0.7072884003815095
aa(lp6
F-7.825294494628906
aF10.043952941894531
aF-0.7084501730306719
aa(lp7
F-4.153417587280273
aF6.8920111656188965
aF-0.7261555398589957
aa.