(lp0
(lp1
F-8.62291145324707
aF-0.6252267360687256
aF0.19413939960395996
aa(lp2
F-7.632124900817871
aF-4.514571189880371
aF0.25154083066075045
aa(lp3
F-10.748672485351562
aF7.683618545532227
aF-1.2560331164273333
aa(lp4
F0.6230297088623047
aF5.199604034423828
aF-1.2944051738793105
aa(lp5
F-0.7836827635765076
aF9.85501480102539
aF-1.2659374432164123
aa(lp6
F7.116374969482422
aF-7.262279033660889
aF-1.277399308104514
aa(lp7
F5.681177139282227
aF-2.5865774154663086
aF-1.286530840632756
aa.