(lp0
(lp1
F2.6045982837677
aF-4.9640421867370605
aF-1.553993952154935
aa(lp2
F5.213274002075195
aF-4.709338188171387
aF-1.5922219111830522
aa(lp3
F-1.6729698181152344
aF5.980210781097412
aF3.108256374267214
aa(lp4
F-6.523251533508301
aF6.053380966186523
aF3.122032993015839
aa(lp5
F2.860921859741211
aF6.298824310302734
aF3.040378712805679
aa(lp6
F-19.607593536376953
aF-5.844059467315674
aF3.1001337735775296
aa(lp7
F-11.73485279083252
aF5.948132038116455
aF-3.110298727186031
aa(lp8
F-9.826541900634766
aF10.766541481018066
aF-3.10906212355201
aa(lp9
F-4.96691370010376
aF10.966534614562988
aF-3.118716191258473
aa.